target datalayout = "e-m:e-p270:32:32-p271:32:32-p272:64:64-i64:64-i128:128-f80:128-n8:16:32:64-S128"
target triple = "x86_64-pc-linux-gnu"

%"class.llvm::StringRef" = type { ptr, i64 }
%"class.llvm::SmallVectorImpl" = type { %"class.llvm::SmallVectorTemplateBase" }
%"class.llvm::SmallVectorTemplateBase" = type { %"class.llvm::SmallVectorTemplateCommon" }
%"class.llvm::SmallVectorTemplateCommon" = type { %"class.llvm::SmallVectorBase" }
%"class.llvm::SmallVectorBase" = type { ptr, i32, i32 }
%"class.llvm::object::DirectX::PSVRuntimeInfo" = type { %"class.llvm::StringRef", i32, %"class.std::variant", [4 x i8], %"struct.llvm::object::ViewArray", %"class.llvm::StringRef", %"class.llvm::SmallVector.32", %"struct.llvm::object::ViewArray.34", %"struct.llvm::object::ViewArray.34", %"struct.llvm::object::ViewArray.34", %"struct.std::array", %"struct.llvm::object::ViewArray.36", %"struct.std::array", %"struct.llvm::object::ViewArray.36", %"struct.llvm::object::ViewArray.36" }
%"class.std::variant" = type { %"struct.std::__detail::__variant::_Variant_base.base", [3 x i8] }
%"struct.std::__detail::__variant::_Variant_base.base" = type { %"struct.std::__detail::__variant::_Move_assign_base.base" }
%"struct.std::__detail::__variant::_Move_assign_base.base" = type { %"struct.std::__detail::__variant::_Copy_assign_base.base" }
%"struct.std::__detail::__variant::_Copy_assign_base.base" = type { %"struct.std::__detail::__variant::_Move_ctor_base.base" }
%"struct.std::__detail::__variant::_Move_ctor_base.base" = type { %"struct.std::__detail::__variant::_Copy_ctor_base.base" }
%"struct.std::__detail::__variant::_Copy_ctor_base.base" = type { %"struct.std::__detail::__variant::_Variant_storage.base" }
%"struct.std::__detail::__variant::_Variant_storage.base" = type <{ %"union.std::__detail::__variant::_Variadic_union", i8 }>
%"union.std::__detail::__variant::_Variadic_union" = type { %"union.std::__detail::__variant::_Variadic_union.22" }
%"union.std::__detail::__variant::_Variadic_union.22" = type { %"union.std::__detail::__variant::_Variadic_union.24" }
%"union.std::__detail::__variant::_Variadic_union.24" = type { %"union.std::__detail::__variant::_Variadic_union.26" }
%"union.std::__detail::__variant::_Variadic_union.26" = type { %"union.std::__detail::__variant::_Variadic_union.28" }
%"union.std::__detail::__variant::_Variadic_union.28" = type { %"struct.std::__detail::__variant::_Uninitialized.29" }
%"struct.std::__detail::__variant::_Uninitialized.29" = type { %"struct.llvm::dxbc::PSV::v3::RuntimeInfo" }
%"struct.llvm::dxbc::PSV::v3::RuntimeInfo" = type { %"struct.llvm::dxbc::PSV::v2::RuntimeInfo", i32 }
%"struct.llvm::dxbc::PSV::v2::RuntimeInfo" = type { %"struct.llvm::dxbc::PSV::v1::RuntimeInfo", i32, i32, i32 }
%"struct.llvm::dxbc::PSV::v1::RuntimeInfo" = type { %"struct.llvm::dxbc::PSV::v0::RuntimeInfo", i8, i8, %"union.llvm::dxbc::PSV::v1::GeometryExtraInfo", i8, i8, i8, i8, [4 x i8] }
%"struct.llvm::dxbc::PSV::v0::RuntimeInfo" = type { %"union.llvm::dxbc::PipelinePSVInfo", i32, i32 }
%"union.llvm::dxbc::PipelinePSVInfo" = type { %"struct.llvm::dxbc::HullPSVInfo" }
%"struct.llvm::dxbc::HullPSVInfo" = type { i32, i32, i32, i32 }
%"union.llvm::dxbc::PSV::v1::GeometryExtraInfo" = type { i16 }
%"struct.llvm::object::ViewArray" = type <{ %"class.llvm::StringRef", i32, [4 x i8] }>
%"class.llvm::SmallVector.32" = type { %"class.llvm::SmallVectorImpl", %"struct.llvm::SmallVectorStorage.33" }
%"struct.llvm::SmallVectorStorage.33" = type { [48 x i8] }
%"struct.llvm::object::ViewArray.34" = type <{ %"class.llvm::StringRef", i32, [4 x i8] }>
%"struct.std::array" = type { [4 x %"struct.llvm::object::ViewArray.36"] }
%"struct.llvm::object::ViewArray.36" = type <{ %"class.llvm::StringRef", i32, [4 x i8] }>
%"struct.std::__detail::__variant::_Variant_storage" = type <{ %"union.std::__detail::__variant::_Variadic_union", i8, [3 x i8] }>
%"struct.std::__detail::__variant::_Uninitialized.27" = type { %"struct.llvm::dxbc::PSV::v2::RuntimeInfo" }
%"struct.std::__detail::__variant::_Uninitialized.25" = type { %"struct.llvm::dxbc::PSV::v1::RuntimeInfo" }

; Function Attrs: mustprogress nounwind uwtable
define linkonce_odr hidden noundef nonnull align 4 dereferenceable(48) ptr @_ZNKRSt8__detail9__variant14_UninitializedIN4llvm4dxbc3PSV2v211RuntimeInfoELb1EE6_M_getEv(ptr noundef nonnull align 4 dereferenceable(48) %0) #0 comdat align 2 {
  %2 = alloca ptr, align 8
  store ptr %0, ptr %2, align 8
  %3 = load ptr, ptr %2, align 8
  %4 = getelementptr inbounds nuw %"struct.std::__detail::__variant::_Uninitialized.27", ptr %3, i32 0, i32 0
  ret ptr %4
}

; Function Attrs: mustprogress nounwind uwtable
define linkonce_odr hidden noundef nonnull align 4 dereferenceable(52) ptr @_ZNKRSt8__detail9__variant14_UninitializedIN4llvm4dxbc3PSV2v311RuntimeInfoELb1EE6_M_getEv(ptr noundef nonnull align 4 dereferenceable(52) %0) #0 comdat align 2 {
  %2 = alloca ptr, align 8
  store ptr %0, ptr %2, align 8
  %3 = load ptr, ptr %2, align 8
  %4 = getelementptr inbounds nuw %"struct.std::__detail::__variant::_Uninitialized.29", ptr %3, i32 0, i32 0
  ret ptr %4
}

; Function Attrs: mustprogress nounwind uwtable
define linkonce_odr hidden noundef nonnull align 4 dereferenceable(36) ptr @_ZNKRSt8__detail9__variant14_UninitializedIN4llvm4dxbc3PSV2v111RuntimeInfoELb1EE6_M_getEv(ptr noundef nonnull align 4 dereferenceable(36) %0) #0 comdat align 2 {
  %2 = alloca ptr, align 8
  store ptr %0, ptr %2, align 8
  %3 = load ptr, ptr %2, align 8
  %4 = getelementptr inbounds nuw %"struct.std::__detail::__variant::_Uninitialized.25", ptr %3, i32 0, i32 0
  ret ptr %4
}

; Function Attrs: mustprogress nounwind uwtable
define linkonce_odr noundef nonnull align 4 dereferenceable(48) ptr @_ZNSt8__detail9__variant7__get_nILm0ERKNS0_15_Variadic_unionIJN4llvm4dxbc3PSV2v211RuntimeInfoENS5_2v311RuntimeInfoEEEEEEDcOT0_(ptr noundef nonnull align 4 dereferenceable(52) %0) #0 comdat {
  %2 = alloca ptr, align 8
  store ptr %0, ptr %2, align 8
  %3 = load ptr, ptr %2, align 8
  %4 = call noundef nonnull align 4 dereferenceable(48) ptr @_ZNKRSt8__detail9__variant14_UninitializedIN4llvm4dxbc3PSV2v211RuntimeInfoELb1EE6_M_getEv(ptr noundef nonnull align 4 dereferenceable(48) %3) #9
  ret ptr %4
}

; Function Attrs: mustprogress nounwind uwtable
define linkonce_odr noundef nonnull align 4 dereferenceable(52) ptr @_ZNSt8__detail9__variant7__get_nILm1ERKNS0_15_Variadic_unionIJN4llvm4dxbc3PSV2v211RuntimeInfoENS5_2v311RuntimeInfoEEEEEEDcOT0_(ptr noundef nonnull align 4 dereferenceable(52) %0) #0 comdat {
  %2 = alloca ptr, align 8
  store ptr %0, ptr %2, align 8
  %3 = load ptr, ptr %2, align 8
  %4 = call noundef nonnull align 4 dereferenceable(52) ptr @_ZNKRSt8__detail9__variant14_UninitializedIN4llvm4dxbc3PSV2v311RuntimeInfoELb1EE6_M_getEv(ptr noundef nonnull align 4 dereferenceable(52) %3) #9
  ret ptr %4
}

; Function Attrs: mustprogress nounwind uwtable
define linkonce_odr noundef nonnull align 4 dereferenceable(36) ptr @_ZNSt8__detail9__variant7__get_nILm2ERKNS0_15_Variadic_unionIJSt9monostateN4llvm4dxbc3PSV2v011RuntimeInfoENS6_2v111RuntimeInfoENS6_2v211RuntimeInfoENS6_2v311RuntimeInfoEEEEEEDcOT0_(ptr noundef nonnull align 4 dereferenceable(52) %0) #0 comdat {
  %2 = alloca ptr, align 8
  store ptr %0, ptr %2, align 8
  %3 = load ptr, ptr %2, align 8
  %4 = call noundef nonnull align 4 dereferenceable(36) ptr @_ZNKRSt8__detail9__variant14_UninitializedIN4llvm4dxbc3PSV2v111RuntimeInfoELb1EE6_M_getEv(ptr noundef nonnull align 4 dereferenceable(36) %3) #9
  ret ptr %4
}

; Function Attrs: mustprogress nounwind uwtable
define linkonce_odr noundef nonnull align 4 dereferenceable(48) ptr @_ZNSt8__detail9__variant7__get_nILm3ERKNS0_15_Variadic_unionIJSt9monostateN4llvm4dxbc3PSV2v011RuntimeInfoENS6_2v111RuntimeInfoENS6_2v211RuntimeInfoENS6_2v311RuntimeInfoEEEEEEDcOT0_(ptr noundef nonnull align 4 dereferenceable(52) %0) #0 comdat {
  %2 = alloca ptr, align 8
  store ptr %0, ptr %2, align 8
  %3 = load ptr, ptr %2, align 8
  %4 = call noundef nonnull align 4 dereferenceable(48) ptr @_ZNSt8__detail9__variant7__get_nILm0ERKNS0_15_Variadic_unionIJN4llvm4dxbc3PSV2v211RuntimeInfoENS5_2v311RuntimeInfoEEEEEEDcOT0_(ptr noundef nonnull align 4 dereferenceable(52) %3) #9
  ret ptr %4
}

; Function Attrs: mustprogress nounwind uwtable
define linkonce_odr noundef nonnull align 4 dereferenceable(52) ptr @_ZNSt8__detail9__variant7__get_nILm4ERKNS0_15_Variadic_unionIJSt9monostateN4llvm4dxbc3PSV2v011RuntimeInfoENS6_2v111RuntimeInfoENS6_2v211RuntimeInfoENS6_2v311RuntimeInfoEEEEEEDcOT0_(ptr noundef nonnull align 4 dereferenceable(52) %0) #0 comdat {
  %2 = alloca ptr, align 8
  store ptr %0, ptr %2, align 8
  %3 = load ptr, ptr %2, align 8
  %4 = call noundef nonnull align 4 dereferenceable(52) ptr @_ZNSt8__detail9__variant7__get_nILm1ERKNS0_15_Variadic_unionIJN4llvm4dxbc3PSV2v211RuntimeInfoENS5_2v311RuntimeInfoEEEEEEDcOT0_(ptr noundef nonnull align 4 dereferenceable(52) %3) #9
  ret ptr %4
}

; Function Attrs: mustprogress nounwind uwtable
define linkonce_odr noundef nonnull align 4 dereferenceable(36) ptr @_ZNSt8__detail9__variant5__getILm2ERKSt7variantIJSt9monostateN4llvm4dxbc3PSV2v011RuntimeInfoENS6_2v111RuntimeInfoENS6_2v211RuntimeInfoENS6_2v311RuntimeInfoEEEEEDcOT0_(ptr noundef nonnull align 4 dereferenceable(53) %0) #0 comdat {
  %2 = alloca ptr, align 8
  store ptr %0, ptr %2, align 8
  %3 = load ptr, ptr %2, align 8
  %4 = getelementptr inbounds nuw %"struct.std::__detail::__variant::_Variant_storage", ptr %3, i32 0, i32 0
  %5 = call noundef nonnull align 4 dereferenceable(36) ptr @_ZNSt8__detail9__variant7__get_nILm2ERKNS0_15_Variadic_unionIJSt9monostateN4llvm4dxbc3PSV2v011RuntimeInfoENS6_2v111RuntimeInfoENS6_2v211RuntimeInfoENS6_2v311RuntimeInfoEEEEEEDcOT0_(ptr noundef nonnull align 4 dereferenceable(52) %4) #9
  ret ptr %5
}

; Function Attrs: mustprogress nounwind uwtable
define linkonce_odr noundef nonnull align 4 dereferenceable(48) ptr @_ZNSt8__detail9__variant5__getILm3ERKSt7variantIJSt9monostateN4llvm4dxbc3PSV2v011RuntimeInfoENS6_2v111RuntimeInfoENS6_2v211RuntimeInfoENS6_2v311RuntimeInfoEEEEEDcOT0_(ptr noundef nonnull align 4 dereferenceable(53) %0) #0 comdat {
  %2 = alloca ptr, align 8
  store ptr %0, ptr %2, align 8
  %3 = load ptr, ptr %2, align 8
  %4 = getelementptr inbounds nuw %"struct.std::__detail::__variant::_Variant_storage", ptr %3, i32 0, i32 0
  %5 = call noundef nonnull align 4 dereferenceable(48) ptr @_ZNSt8__detail9__variant7__get_nILm3ERKNS0_15_Variadic_unionIJSt9monostateN4llvm4dxbc3PSV2v011RuntimeInfoENS6_2v111RuntimeInfoENS6_2v211RuntimeInfoENS6_2v311RuntimeInfoEEEEEEDcOT0_(ptr noundef nonnull align 4 dereferenceable(52) %4) #9
  ret ptr %5
}

; Function Attrs: mustprogress nounwind uwtable
define linkonce_odr noundef nonnull align 4 dereferenceable(52) ptr @_ZNSt8__detail9__variant5__getILm4ERKSt7variantIJSt9monostateN4llvm4dxbc3PSV2v011RuntimeInfoENS6_2v111RuntimeInfoENS6_2v211RuntimeInfoENS6_2v311RuntimeInfoEEEEEDcOT0_(ptr noundef nonnull align 4 dereferenceable(53) %0) #0 comdat {
  %2 = alloca ptr, align 8
  store ptr %0, ptr %2, align 8
  %3 = load ptr, ptr %2, align 8
  %4 = getelementptr inbounds nuw %"struct.std::__detail::__variant::_Variant_storage", ptr %3, i32 0, i32 0
  %5 = call noundef nonnull align 4 dereferenceable(52) ptr @_ZNSt8__detail9__variant7__get_nILm4ERKNS0_15_Variadic_unionIJSt9monostateN4llvm4dxbc3PSV2v011RuntimeInfoENS6_2v111RuntimeInfoENS6_2v211RuntimeInfoENS6_2v311RuntimeInfoEEEEEEDcOT0_(ptr noundef nonnull align 4 dereferenceable(52) %4) #9
  ret ptr %5
}

; Function Attrs: mustprogress nounwind uwtable
define linkonce_odr hidden noundef i64 @_ZNKSt7variantIJSt9monostateN4llvm4dxbc3PSV2v011RuntimeInfoENS3_2v111RuntimeInfoENS3_2v211RuntimeInfoENS3_2v311RuntimeInfoEEE5indexEv(ptr noundef nonnull align 4 dereferenceable(53) %0) #0 comdat align 2 {
  %2 = alloca ptr, align 8
  store ptr %0, ptr %2, align 8
  %3 = load ptr, ptr %2, align 8
  %4 = getelementptr inbounds nuw %"struct.std::__detail::__variant::_Variant_storage", ptr %3, i32 0, i32 1
  %5 = load i8, ptr %4, align 4
  %6 = zext i8 %5 to i64
  ret i64 %6
}

; Function Attrs: mustprogress nounwind uwtable
define linkonce_odr noundef ptr @_ZSt6get_ifILm2EJSt9monostateN4llvm4dxbc3PSV2v011RuntimeInfoENS3_2v111RuntimeInfoENS3_2v211RuntimeInfoENS3_2v311RuntimeInfoEEENSt11add_pointerIKNSt19variant_alternativeIXT_ESt7variantIJDpT0_EEE4typeEE4typeEPKSH_(ptr noundef %0) #0 comdat {
  %2 = alloca ptr, align 8
  %3 = alloca ptr, align 8
  store ptr %0, ptr %3, align 8
  %4 = load ptr, ptr %3, align 8
  %5 = icmp ne ptr %4, null
  br i1 %5, label %6, label %13

6:                                                ; preds = %1
  %7 = load ptr, ptr %3, align 8
  %8 = call noundef i64 @_ZNKSt7variantIJSt9monostateN4llvm4dxbc3PSV2v011RuntimeInfoENS3_2v111RuntimeInfoENS3_2v211RuntimeInfoENS3_2v311RuntimeInfoEEE5indexEv(ptr noundef nonnull align 4 dereferenceable(53) %7) #9
  %9 = icmp eq i64 %8, 2
  br i1 %9, label %10, label %13

10:                                               ; preds = %6
  %11 = load ptr, ptr %3, align 8
  %12 = call noundef nonnull align 4 dereferenceable(36) ptr @_ZNSt8__detail9__variant5__getILm2ERKSt7variantIJSt9monostateN4llvm4dxbc3PSV2v011RuntimeInfoENS6_2v111RuntimeInfoENS6_2v211RuntimeInfoENS6_2v311RuntimeInfoEEEEEDcOT0_(ptr noundef nonnull align 4 dereferenceable(53) %11) #9
  store ptr %12, ptr %2, align 8
  br label %14

13:                                               ; preds = %6, %1
  store ptr null, ptr %2, align 8
  br label %14

14:                                               ; preds = %13, %10
  %15 = load ptr, ptr %2, align 8
  ret ptr %15
}

; Function Attrs: mustprogress nounwind uwtable
define linkonce_odr noundef ptr @_ZSt6get_ifILm3EJSt9monostateN4llvm4dxbc3PSV2v011RuntimeInfoENS3_2v111RuntimeInfoENS3_2v211RuntimeInfoENS3_2v311RuntimeInfoEEENSt11add_pointerIKNSt19variant_alternativeIXT_ESt7variantIJDpT0_EEE4typeEE4typeEPKSH_(ptr noundef %0) #0 comdat {
  %2 = alloca ptr, align 8
  %3 = alloca ptr, align 8
  store ptr %0, ptr %3, align 8
  %4 = load ptr, ptr %3, align 8
  %5 = icmp ne ptr %4, null
  br i1 %5, label %6, label %13

6:                                                ; preds = %1
  %7 = load ptr, ptr %3, align 8
  %8 = call noundef i64 @_ZNKSt7variantIJSt9monostateN4llvm4dxbc3PSV2v011RuntimeInfoENS3_2v111RuntimeInfoENS3_2v211RuntimeInfoENS3_2v311RuntimeInfoEEE5indexEv(ptr noundef nonnull align 4 dereferenceable(53) %7) #9
  %9 = icmp eq i64 %8, 3
  br i1 %9, label %10, label %13

10:                                               ; preds = %6
  %11 = load ptr, ptr %3, align 8
  %12 = call noundef nonnull align 4 dereferenceable(48) ptr @_ZNSt8__detail9__variant5__getILm3ERKSt7variantIJSt9monostateN4llvm4dxbc3PSV2v011RuntimeInfoENS6_2v111RuntimeInfoENS6_2v211RuntimeInfoENS6_2v311RuntimeInfoEEEEEDcOT0_(ptr noundef nonnull align 4 dereferenceable(53) %11) #9
  store ptr %12, ptr %2, align 8
  br label %14

13:                                               ; preds = %6, %1
  store ptr null, ptr %2, align 8
  br label %14

14:                                               ; preds = %13, %10
  %15 = load ptr, ptr %2, align 8
  ret ptr %15
}

; Function Attrs: mustprogress nounwind uwtable
define linkonce_odr noundef ptr @_ZSt6get_ifILm4EJSt9monostateN4llvm4dxbc3PSV2v011RuntimeInfoENS3_2v111RuntimeInfoENS3_2v211RuntimeInfoENS3_2v311RuntimeInfoEEENSt11add_pointerIKNSt19variant_alternativeIXT_ESt7variantIJDpT0_EEE4typeEE4typeEPKSH_(ptr noundef %0) #0 comdat {
  %2 = alloca ptr, align 8
  %3 = alloca ptr, align 8
  store ptr %0, ptr %3, align 8
  %4 = load ptr, ptr %3, align 8
  %5 = icmp ne ptr %4, null
  br i1 %5, label %6, label %13

6:                                                ; preds = %1
  %7 = load ptr, ptr %3, align 8
  %8 = call noundef i64 @_ZNKSt7variantIJSt9monostateN4llvm4dxbc3PSV2v011RuntimeInfoENS3_2v111RuntimeInfoENS3_2v211RuntimeInfoENS3_2v311RuntimeInfoEEE5indexEv(ptr noundef nonnull align 4 dereferenceable(53) %7) #9
  %9 = icmp eq i64 %8, 4
  br i1 %9, label %10, label %13

10:                                               ; preds = %6
  %11 = load ptr, ptr %3, align 8
  %12 = call noundef nonnull align 4 dereferenceable(52) ptr @_ZNSt8__detail9__variant5__getILm4ERKSt7variantIJSt9monostateN4llvm4dxbc3PSV2v011RuntimeInfoENS6_2v111RuntimeInfoENS6_2v211RuntimeInfoENS6_2v311RuntimeInfoEEEEEDcOT0_(ptr noundef nonnull align 4 dereferenceable(53) %11) #9
  store ptr %12, ptr %2, align 8
  br label %14

13:                                               ; preds = %6, %1
  store ptr null, ptr %2, align 8
  br label %14

14:                                               ; preds = %13, %10
  %15 = load ptr, ptr %2, align 8
  ret ptr %15
}

; Function Attrs: mustprogress nounwind uwtable
define linkonce_odr noundef ptr @_ZSt6get_ifIN4llvm4dxbc3PSV2v111RuntimeInfoEJSt9monostateNS2_2v011RuntimeInfoES4_NS2_2v211RuntimeInfoENS2_2v311RuntimeInfoEEENSt11add_pointerIKT_E4typeEPKSt7variantIJDpT0_EE(ptr noundef %0) #0 comdat {
  %2 = alloca ptr, align 8
  %3 = alloca i64, align 8
  store ptr %0, ptr %2, align 8
  store i64 2, ptr %3, align 8
  %4 = load ptr, ptr %2, align 8
  %5 = call noundef ptr @_ZSt6get_ifILm2EJSt9monostateN4llvm4dxbc3PSV2v011RuntimeInfoENS3_2v111RuntimeInfoENS3_2v211RuntimeInfoENS3_2v311RuntimeInfoEEENSt11add_pointerIKNSt19variant_alternativeIXT_ESt7variantIJDpT0_EEE4typeEE4typeEPKSH_(ptr noundef %4) #9
  ret ptr %5
}

; Function Attrs: mustprogress nounwind uwtable
define linkonce_odr noundef ptr @_ZSt6get_ifIN4llvm4dxbc3PSV2v211RuntimeInfoEJSt9monostateNS2_2v011RuntimeInfoENS2_2v111RuntimeInfoES4_NS2_2v311RuntimeInfoEEENSt11add_pointerIKT_E4typeEPKSt7variantIJDpT0_EE(ptr noundef %0) #0 comdat {
  %2 = alloca ptr, align 8
  %3 = alloca i64, align 8
  store ptr %0, ptr %2, align 8
  store i64 3, ptr %3, align 8
  %4 = load ptr, ptr %2, align 8
  %5 = call noundef ptr @_ZSt6get_ifILm3EJSt9monostateN4llvm4dxbc3PSV2v011RuntimeInfoENS3_2v111RuntimeInfoENS3_2v211RuntimeInfoENS3_2v311RuntimeInfoEEENSt11add_pointerIKNSt19variant_alternativeIXT_ESt7variantIJDpT0_EEE4typeEE4typeEPKSH_(ptr noundef %4) #9
  ret ptr %5
}

; Function Attrs: mustprogress nounwind uwtable
define linkonce_odr noundef ptr @_ZSt6get_ifIN4llvm4dxbc3PSV2v311RuntimeInfoEJSt9monostateNS2_2v011RuntimeInfoENS2_2v111RuntimeInfoENS2_2v211RuntimeInfoES4_EENSt11add_pointerIKT_E4typeEPKSt7variantIJDpT0_EE(ptr noundef %0) #0 comdat {
  %2 = alloca ptr, align 8
  %3 = alloca i64, align 8
  store ptr %0, ptr %2, align 8
  store i64 4, ptr %3, align 8
  %4 = load ptr, ptr %2, align 8
  %5 = call noundef ptr @_ZSt6get_ifILm4EJSt9monostateN4llvm4dxbc3PSV2v011RuntimeInfoENS3_2v111RuntimeInfoENS3_2v211RuntimeInfoENS3_2v311RuntimeInfoEEENSt11add_pointerIKNSt19variant_alternativeIXT_ESt7variantIJDpT0_EEE4typeEE4typeEPKSH_(ptr noundef %4) #9
  ret ptr %5
}

; Function Attrs: mustprogress nounwind uwtable
define dso_local noundef zeroext i8 @_ZNK4llvm6object7DirectX14PSVRuntimeInfo22getSigPatchOrPrimCountEv(ptr noundef nonnull align 8 dereferenceable(520) %0) #0 align 2 {
  %2 = alloca i8, align 1
  %3 = alloca ptr, align 8
  %4 = alloca ptr, align 8
  %5 = alloca ptr, align 8
  %6 = alloca ptr, align 8
  store ptr %0, ptr %3, align 8
  %7 = load ptr, ptr %3, align 8
  %8 = getelementptr inbounds nuw %"class.llvm::object::DirectX::PSVRuntimeInfo", ptr %7, i32 0, i32 2
  %9 = call noundef ptr @_ZSt6get_ifIN4llvm4dxbc3PSV2v311RuntimeInfoEJSt9monostateNS2_2v011RuntimeInfoENS2_2v111RuntimeInfoENS2_2v211RuntimeInfoES4_EENSt11add_pointerIKT_E4typeEPKSt7variantIJDpT0_EE(ptr noundef %8) #9
  store ptr %9, ptr %4, align 8
  %10 = load ptr, ptr %4, align 8
  %11 = icmp ne ptr %10, null
  br i1 %11, label %12, label %16

12:                                               ; preds = %1
  %13 = load ptr, ptr %4, align 8
  %14 = getelementptr inbounds nuw %"struct.llvm::dxbc::PSV::v1::RuntimeInfo", ptr %13, i32 0, i32 6
  %15 = load i8, ptr %14, align 2
  store i8 %15, ptr %2, align 1
  br label %35

16:                                               ; preds = %1
  %17 = getelementptr inbounds nuw %"class.llvm::object::DirectX::PSVRuntimeInfo", ptr %7, i32 0, i32 2
  %18 = call noundef ptr @_ZSt6get_ifIN4llvm4dxbc3PSV2v211RuntimeInfoEJSt9monostateNS2_2v011RuntimeInfoENS2_2v111RuntimeInfoES4_NS2_2v311RuntimeInfoEEENSt11add_pointerIKT_E4typeEPKSt7variantIJDpT0_EE(ptr noundef %17) #9
  store ptr %18, ptr %5, align 8
  %19 = load ptr, ptr %5, align 8
  %20 = icmp ne ptr %19, null
  br i1 %20, label %21, label %25

21:                                               ; preds = %16
  %22 = load ptr, ptr %5, align 8
  %23 = getelementptr inbounds nuw %"struct.llvm::dxbc::PSV::v1::RuntimeInfo", ptr %22, i32 0, i32 6
  %24 = load i8, ptr %23, align 2
  store i8 %24, ptr %2, align 1
  br label %35

25:                                               ; preds = %16
  %26 = getelementptr inbounds nuw %"class.llvm::object::DirectX::PSVRuntimeInfo", ptr %7, i32 0, i32 2
  %27 = call noundef ptr @_ZSt6get_ifIN4llvm4dxbc3PSV2v111RuntimeInfoEJSt9monostateNS2_2v011RuntimeInfoES4_NS2_2v211RuntimeInfoENS2_2v311RuntimeInfoEEENSt11add_pointerIKT_E4typeEPKSt7variantIJDpT0_EE(ptr noundef %26) #9
  store ptr %27, ptr %6, align 8
  %28 = load ptr, ptr %6, align 8
  %29 = icmp ne ptr %28, null
  br i1 %29, label %30, label %34

30:                                               ; preds = %25
  %31 = load ptr, ptr %6, align 8
  %32 = getelementptr inbounds nuw %"struct.llvm::dxbc::PSV::v1::RuntimeInfo", ptr %31, i32 0, i32 6
  %33 = load i8, ptr %32, align 2
  store i8 %33, ptr %2, align 1
  br label %35

34:                                               ; preds = %25
  store i8 0, ptr %2, align 1
  br label %35

35:                                               ; preds = %34, %30, %21, %12
  %36 = load i8, ptr %2, align 1
  ret i8 %36
}